; Function Attrs: mustprogress uwtable
define void @_ZNK6casadi11Collocation20algebraic_state_initERKNS_2MXES3_(ptr dead_on_unwind noalias writable sret(%"class.casadi::MX") align 8 %0, ptr nocapture noundef nonnull readonly align 8 dereferenceable(2016) %1, ptr noundef nonnull align 8 dereferenceable(8) %2, ptr noundef nonnull align 8 dereferenceable(8) %3) unnamed_addr #3 align 2 personality ptr @__gxx_personality_v0 {
  %5 = alloca %"class.casadi::MX", align 8
  call void @_ZN6casadi7vertcatERKNS_2MXES2_(ptr dead_on_unwind nonnull writable sret(%"class.casadi::MX") align 8 %5, ptr noundef nonnull align 8 dereferenceable(8) %2, ptr noundef nonnull align 8 dereferenceable(8) %3)
  %6 = getelementptr inbounds i8, ptr %1, i64 1976
  %7 = load i64, ptr %6, align 8
  invoke void @_ZN6casadi2MX6repmatERKS0_xx(ptr dead_on_unwind writable sret(%"class.casadi::MX") align 8 %0, ptr noundef nonnull align 8 dereferenceable(8) %5, i64 noundef %7, i64 noundef 1)
          to label %_ZN6casadi6repmatERKNS_2MXExx.exit unwind label %8

_ZN6casadi6repmatERKNS_2MXExx.exit:               ; preds = %4
  call void @_ZN6casadi2MXD1Ev(ptr noundef nonnull align 8 dereferenceable(8) %5) #18
  ret void

8:                                                ; preds = %4
  %9 = landingpad { ptr, i32 }
          cleanup
  call void @_ZN6casadi2MXD1Ev(ptr noundef nonnull align 8 dereferenceable(8) %5) #18
  resume { ptr, i32 } %9
}